target datalayout = "e-m:e-p270:32:32-p271:32:32-p272:64:64-i64:64-i128:128-f80:128-n8:16:32:64-S128"
target triple = "x86_64-pc-linux-gnu"

%struct.Tuplesortstate = type { %struct.TuplesortPublic, i32, i8, i8, i32, i64, i64, i64, i32, i64, i8, i32, ptr, ptr, i32, i32, i8, i8, ptr, ptr, ptr, i64, ptr, i32, ptr, i32, i32, ptr, i32, i32, ptr, ptr, i32, i8, i64, i32, i8, i32, ptr, i32, i64, %struct.PGRUsage }
%struct.TuplesortPublic = type { ptr, ptr, ptr, ptr, ptr, ptr, ptr, ptr, ptr, i8, i32, ptr, ptr, i32, i8, ptr }
%struct.PGRUsage = type { %struct.timeval, %struct.rusage }
%struct.timeval = type { i64, i64 }
%struct.rusage = type { %struct.timeval, %struct.timeval, %union.anon, %union.anon.0, %union.anon.1, %union.anon.2, %union.anon.3, %union.anon.4, %union.anon.5, %union.anon.6, %union.anon.7, %union.anon.8, %union.anon.9, %union.anon.10, %union.anon.11, %union.anon.12 }
%union.anon = type { i64 }
%union.anon.0 = type { i64 }
%union.anon.1 = type { i64 }
%union.anon.2 = type { i64 }
%union.anon.3 = type { i64 }
%union.anon.4 = type { i64 }
%union.anon.5 = type { i64 }
%union.anon.6 = type { i64 }
%union.anon.7 = type { i64 }
%union.anon.8 = type { i64 }
%union.anon.9 = type { i64 }
%union.anon.10 = type { i64 }
%union.anon.11 = type { i64 }
%union.anon.12 = type { i64 }

@.str.1 = private unnamed_addr constant [12 x i8] c"tuplesort.c\00", align 1
@CurrentMemoryContext = external global ptr, align 8
@.str.5 = private unnamed_addr constant [24 x i8] c"invalid tuplesort state\00", align 1
@__func__.tuplesort_rescan = private unnamed_addr constant [17 x i8] c"tuplesort_rescan\00", align 1

; Function Attrs: inlinehint nounwind uwtable
define internal ptr @MemoryContextSwitchTo(ptr noundef %0) #4 {
  %2 = alloca ptr, align 8
  %3 = alloca ptr, align 8
  store ptr %0, ptr %2, align 8
  call void @llvm.lifetime.start.p0(i64 8, ptr %3) #9
  %4 = load ptr, ptr @CurrentMemoryContext, align 8
  store ptr %4, ptr %3, align 8
  %5 = load ptr, ptr %2, align 8
  store ptr %5, ptr @CurrentMemoryContext, align 8
  %6 = load ptr, ptr %3, align 8
  call void @llvm.lifetime.end.p0(i64 8, ptr %3) #9
  ret ptr %6
}

; Function Attrs: nounwind uwtable
define dso_local void @tuplesort_rescan(ptr noundef %0) #0 {
  %2 = alloca ptr, align 8
  %3 = alloca ptr, align 8
  store ptr %0, ptr %2, align 8
  call void @llvm.lifetime.start.p0(i64 8, ptr %3) #9
  %4 = load ptr, ptr %2, align 8
  %5 = getelementptr inbounds nuw %struct.Tuplesortstate, ptr %4, i32 0, i32 0
  %6 = getelementptr inbounds nuw %struct.TuplesortPublic, ptr %5, i32 0, i32 7
  %7 = load ptr, ptr %6, align 8
  %8 = call ptr @MemoryContextSwitchTo(ptr noundef %7)
  store ptr %8, ptr %3, align 8
  %9 = load ptr, ptr %2, align 8
  %10 = getelementptr inbounds nuw %struct.Tuplesortstate, ptr %9, i32 0, i32 1
  %11 = load i32, ptr %10, align 8
  switch i32 %11, label %33 [
    i32 3, label %12
    i32 4, label %21
  ]

12:                                               ; preds = %1
  %13 = load ptr, ptr %2, align 8
  %14 = getelementptr inbounds nuw %struct.Tuplesortstate, ptr %13, i32 0, i32 32
  store i32 0, ptr %14, align 8
  %15 = load ptr, ptr %2, align 8
  %16 = getelementptr inbounds nuw %struct.Tuplesortstate, ptr %15, i32 0, i32 33
  store i8 0, ptr %16, align 4
  %17 = load ptr, ptr %2, align 8
  %18 = getelementptr inbounds nuw %struct.Tuplesortstate, ptr %17, i32 0, i32 35
  store i32 0, ptr %18, align 8
  %19 = load ptr, ptr %2, align 8
  %20 = getelementptr inbounds nuw %struct.Tuplesortstate, ptr %19, i32 0, i32 36
  store i8 0, ptr %20, align 4
  br label %44

21:                                               ; preds = %1
  %22 = load ptr, ptr %2, align 8
  %23 = getelementptr inbounds nuw %struct.Tuplesortstate, ptr %22, i32 0, i32 31
  %24 = load ptr, ptr %23, align 8
  call void @LogicalTapeRewindForRead(ptr noundef %24, i64 noundef 0)
  %25 = load ptr, ptr %2, align 8
  %26 = getelementptr inbounds nuw %struct.Tuplesortstate, ptr %25, i32 0, i32 33
  store i8 0, ptr %26, align 4
  %27 = load ptr, ptr %2, align 8
  %28 = getelementptr inbounds nuw %struct.Tuplesortstate, ptr %27, i32 0, i32 34
  store i64 0, ptr %28, align 8
  %29 = load ptr, ptr %2, align 8
  %30 = getelementptr inbounds nuw %struct.Tuplesortstate, ptr %29, i32 0, i32 35
  store i32 0, ptr %30, align 8
  %31 = load ptr, ptr %2, align 8
  %32 = getelementptr inbounds nuw %struct.Tuplesortstate, ptr %31, i32 0, i32 36
  store i8 0, ptr %32, align 4
  br label %44

33:                                               ; preds = %1
  br label %34

34:                                               ; preds = %33
  br i1 true, label %35, label %37

35:                                               ; preds = %34
  %36 = call zeroext i1 @errstart_cold(i32 noundef 21, ptr noundef null) #10
  br i1 %36, label %39, label %41

37:                                               ; preds = %34
  %38 = call zeroext i1 @errstart(i32 noundef 21, ptr noundef null)
  br i1 %38, label %39, label %41

39:                                               ; preds = %37, %35
  %40 = call i32 (ptr, ...) @errmsg_internal(ptr noundef @.str.5)
  call void @errfinish(ptr noundef @.str.1, i32 noundef 2424, ptr noundef @__func__.tuplesort_rescan)
  br label %41

41:                                               ; preds = %39, %37, %35
  unreachable

42:                                               ; No predecessors!
  br label %43

43:                                               ; preds = %42
  br label %44

44:                                               ; preds = %43, %21, %12
  %45 = load ptr, ptr %3, align 8
  %46 = call ptr @MemoryContextSwitchTo(ptr noundef %45)
  call void @llvm.lifetime.end.p0(i64 8, ptr %3) #9
  ret void
}