; Function Attrs: nounwind uwtable
define dso_local void @tuplesort_rescan(ptr noundef captures(none) %0) local_unnamed_addr #0 {
  %2 = getelementptr inbounds nuw i8, ptr %0, i64 56
  %3 = load ptr, ptr %2, align 8
  %4 = load ptr, ptr @CurrentMemoryContext, align 8
  store ptr %3, ptr @CurrentMemoryContext, align 8
  %5 = getelementptr inbounds nuw i8, ptr %0, i64 112
  %6 = load i32, ptr %5, align 8
  switch i32 %6, label %15 [
    i32 3, label %7
    i32 4, label %10
  ]

7:                                                ; preds = %1
  %8 = getelementptr inbounds nuw i8, ptr %0, i64 304
  store i32 0, ptr %8, align 8
  %9 = getelementptr inbounds nuw i8, ptr %0, i64 308
  store i8 0, ptr %9, align 4
  br label %18

10:                                               ; preds = %1
  %11 = getelementptr inbounds nuw i8, ptr %0, i64 296
  %12 = load ptr, ptr %11, align 8
  tail call void @LogicalTapeRewindForRead(ptr noundef %12, i64 noundef 0) #13
  %13 = getelementptr inbounds nuw i8, ptr %0, i64 308
  store i8 0, ptr %13, align 4
  %14 = getelementptr inbounds nuw i8, ptr %0, i64 312
  store i64 0, ptr %14, align 8
  br label %18

15:                                               ; preds = %1
  %16 = tail call zeroext i1 @errstart_cold(i32 noundef 21, ptr noundef null) #12
  tail call void @llvm.assume(i1 %16)
  %17 = tail call i32 (ptr, ...) @errmsg_internal(ptr noundef nonnull @.str.5) #13
  tail call void @errfinish(ptr noundef nonnull @.str.1, i32 noundef 2424, ptr noundef nonnull @__func__.tuplesort_rescan) #13
  unreachable

18:                                               ; preds = %10, %7
  %19 = getelementptr inbounds nuw i8, ptr %0, i64 320
  store i32 0, ptr %19, align 8
  %20 = getelementptr inbounds nuw i8, ptr %0, i64 324
  store i8 0, ptr %20, align 4
  store ptr %4, ptr @CurrentMemoryContext, align 8
  ret void
}